target datalayout = "e-m:e-p270:32:32-p271:32:32-p272:64:64-i64:64-i128:128-f80:128-n8:16:32:64-S128"
target triple = "x86_64-pc-linux-gnu"

%struct.PyMutex = type { i8 }
%struct._queues = type { ptr, ptr, i64, i64 }
%struct.idarg_int64_converter_data = type { ptr, i64 }
%struct.globals = type { %struct.PyMutex, i32, %struct._queues }
%struct._queue = type { i64, ptr, i32, %struct._queueitems, %struct.anon.0 }
%struct._queueitems = type { i64, i64, ptr, ptr }
%struct.anon.0 = type { i32, i32 }
%struct._queueref = type { ptr, i64, i64, ptr }

@_globals = internal global { %struct.PyMutex, [3 x i8], i32, %struct._queues } zeroinitializer, align 8
@queuesmod_get_queue_defaults.kwlist = internal global [2 x ptr] [ptr @.str.28, ptr null], align 16
@.str.44 = private unnamed_addr constant [22 x i8] c"O&:get_queue_defaults\00", align 1
@.str.45 = private unnamed_addr constant [3 x i8] c"ii\00", align 1

; Function Attrs: nounwind uwtable
define internal void @_queue_mark_waiter(ptr noundef %0, ptr noundef %1) #0 {
  %3 = alloca ptr, align 8
  %4 = alloca ptr, align 8
  store ptr %0, ptr %3, align 8, !tbaa !26
  store ptr %1, ptr %4, align 8, !tbaa !8
  %5 = load ptr, ptr %4, align 8, !tbaa !8
  %6 = icmp ne ptr %5, null
  br i1 %6, label %7, label %15

7:                                                ; preds = %2
  %8 = load ptr, ptr %4, align 8, !tbaa !8
  %9 = call i32 @PyThread_acquire_lock(ptr noundef %8, i32 noundef 1)
  %10 = load ptr, ptr %3, align 8, !tbaa !26
  %11 = getelementptr inbounds nuw %struct._queue, ptr %10, i32 0, i32 0
  %12 = load i64, ptr %11, align 8, !tbaa !41
  %13 = add i64 %12, 1
  store i64 %13, ptr %11, align 8, !tbaa !41
  %14 = load ptr, ptr %4, align 8, !tbaa !8
  call void @PyThread_release_lock(ptr noundef %14)
  br label %20

15:                                               ; preds = %2
  %16 = load ptr, ptr %3, align 8, !tbaa !26
  %17 = getelementptr inbounds nuw %struct._queue, ptr %16, i32 0, i32 0
  %18 = load i64, ptr %17, align 8, !tbaa !41
  %19 = add i64 %18, 1
  store i64 %19, ptr %17, align 8, !tbaa !41
  br label %20

20:                                               ; preds = %15, %7
  ret void
}

; Function Attrs: nounwind uwtable
define internal ptr @_queuerefs_find(ptr noundef %0, i64 noundef %1, ptr noundef %2) #0 {
  %4 = alloca ptr, align 8
  %5 = alloca i64, align 8
  %6 = alloca ptr, align 8
  %7 = alloca ptr, align 8
  %8 = alloca ptr, align 8
  store ptr %0, ptr %4, align 8, !tbaa !50
  store i64 %1, ptr %5, align 8, !tbaa !11
  store ptr %2, ptr %6, align 8, !tbaa !77
  call void @llvm.lifetime.start.p0(i64 8, ptr %7) #8
  store ptr null, ptr %7, align 8, !tbaa !50
  call void @llvm.lifetime.start.p0(i64 8, ptr %8) #8
  %9 = load ptr, ptr %4, align 8, !tbaa !50
  store ptr %9, ptr %8, align 8, !tbaa !50
  br label %10

10:                                               ; preds = %20, %3
  %11 = load ptr, ptr %8, align 8, !tbaa !50
  %12 = icmp ne ptr %11, null
  br i1 %12, label %13, label %25

13:                                               ; preds = %10
  %14 = load ptr, ptr %8, align 8, !tbaa !50
  %15 = getelementptr inbounds nuw %struct._queueref, ptr %14, i32 0, i32 1
  %16 = load i64, ptr %15, align 8, !tbaa !53
  %17 = load i64, ptr %5, align 8, !tbaa !11
  %18 = icmp eq i64 %16, %17
  br i1 %18, label %19, label %20

19:                                               ; preds = %13
  br label %25

20:                                               ; preds = %13
  %21 = load ptr, ptr %8, align 8, !tbaa !50
  store ptr %21, ptr %7, align 8, !tbaa !50
  %22 = load ptr, ptr %8, align 8, !tbaa !50
  %23 = getelementptr inbounds nuw %struct._queueref, ptr %22, i32 0, i32 0
  %24 = load ptr, ptr %23, align 8, !tbaa !51
  store ptr %24, ptr %8, align 8, !tbaa !50
  br label %10, !llvm.loop !79

25:                                               ; preds = %19, %10
  %26 = load ptr, ptr %6, align 8, !tbaa !77
  %27 = icmp ne ptr %26, null
  br i1 %27, label %28, label %31

28:                                               ; preds = %25
  %29 = load ptr, ptr %7, align 8, !tbaa !50
  %30 = load ptr, ptr %6, align 8, !tbaa !77
  store ptr %29, ptr %30, align 8, !tbaa !50
  br label %31

31:                                               ; preds = %28, %25
  %32 = load ptr, ptr %8, align 8, !tbaa !50
  call void @llvm.lifetime.end.p0(i64 8, ptr %8) #8
  call void @llvm.lifetime.end.p0(i64 8, ptr %7) #8
  ret ptr %32
}

; Function Attrs: nounwind uwtable
define internal void @_queue_unmark_waiter(ptr noundef %0, ptr noundef %1) #0 {
  %3 = alloca ptr, align 8
  %4 = alloca ptr, align 8
  store ptr %0, ptr %3, align 8, !tbaa !26
  store ptr %1, ptr %4, align 8, !tbaa !8
  %5 = load ptr, ptr %4, align 8, !tbaa !8
  %6 = icmp ne ptr %5, null
  br i1 %6, label %7, label %15

7:                                                ; preds = %2
  %8 = load ptr, ptr %4, align 8, !tbaa !8
  %9 = call i32 @PyThread_acquire_lock(ptr noundef %8, i32 noundef 1)
  %10 = load ptr, ptr %3, align 8, !tbaa !26
  %11 = getelementptr inbounds nuw %struct._queue, ptr %10, i32 0, i32 0
  %12 = load i64, ptr %11, align 8, !tbaa !41
  %13 = sub i64 %12, 1
  store i64 %13, ptr %11, align 8, !tbaa !41
  %14 = load ptr, ptr %4, align 8, !tbaa !8
  call void @PyThread_release_lock(ptr noundef %14)
  br label %20

15:                                               ; preds = %2
  %16 = load ptr, ptr %3, align 8, !tbaa !26
  %17 = getelementptr inbounds nuw %struct._queue, ptr %16, i32 0, i32 0
  %18 = load i64, ptr %17, align 8, !tbaa !41
  %19 = sub i64 %18, 1
  store i64 %19, ptr %17, align 8, !tbaa !41
  br label %20

20:                                               ; preds = %15, %7
  ret void
}

; Function Attrs: nounwind uwtable
define internal i32 @_queues_lookup(ptr noundef %0, i64 noundef %1, ptr noundef %2) #0 {
  %4 = alloca i32, align 4
  %5 = alloca ptr, align 8
  %6 = alloca i64, align 8
  %7 = alloca ptr, align 8
  %8 = alloca ptr, align 8
  %9 = alloca i32, align 4
  %10 = alloca ptr, align 8
  store ptr %0, ptr %5, align 8, !tbaa !39
  store i64 %1, ptr %6, align 8, !tbaa !11
  store ptr %2, ptr %7, align 8, !tbaa !74
  %11 = load ptr, ptr %5, align 8, !tbaa !39
  %12 = getelementptr inbounds nuw %struct._queues, ptr %11, i32 0, i32 0
  %13 = load ptr, ptr %12, align 8, !tbaa !49
  %14 = call i32 @PyThread_acquire_lock(ptr noundef %13, i32 noundef 1)
  call void @llvm.lifetime.start.p0(i64 8, ptr %8) #8
  %15 = load ptr, ptr %5, align 8, !tbaa !39
  %16 = getelementptr inbounds nuw %struct._queues, ptr %15, i32 0, i32 1
  %17 = load ptr, ptr %16, align 8, !tbaa !57
  %18 = load i64, ptr %6, align 8, !tbaa !11
  %19 = call ptr @_queuerefs_find(ptr noundef %17, i64 noundef %18, ptr noundef null)
  store ptr %19, ptr %8, align 8, !tbaa !50
  %20 = load ptr, ptr %8, align 8, !tbaa !50
  %21 = icmp eq ptr %20, null
  br i1 %21, label %22, label %26

22:                                               ; preds = %3
  %23 = load ptr, ptr %5, align 8, !tbaa !39
  %24 = getelementptr inbounds nuw %struct._queues, ptr %23, i32 0, i32 0
  %25 = load ptr, ptr %24, align 8, !tbaa !49
  call void @PyThread_release_lock(ptr noundef %25)
  store i32 -14, ptr %4, align 4
  store i32 1, ptr %9, align 4
  br label %36

26:                                               ; preds = %3
  call void @llvm.lifetime.start.p0(i64 8, ptr %10) #8
  %27 = load ptr, ptr %8, align 8, !tbaa !50
  %28 = getelementptr inbounds nuw %struct._queueref, ptr %27, i32 0, i32 3
  %29 = load ptr, ptr %28, align 8, !tbaa !55
  store ptr %29, ptr %10, align 8, !tbaa !26
  %30 = load ptr, ptr %10, align 8, !tbaa !26
  call void @_queue_mark_waiter(ptr noundef %30, ptr noundef null)
  %31 = load ptr, ptr %5, align 8, !tbaa !39
  %32 = getelementptr inbounds nuw %struct._queues, ptr %31, i32 0, i32 0
  %33 = load ptr, ptr %32, align 8, !tbaa !49
  call void @PyThread_release_lock(ptr noundef %33)
  %34 = load ptr, ptr %10, align 8, !tbaa !26
  %35 = load ptr, ptr %7, align 8, !tbaa !74
  store ptr %34, ptr %35, align 8, !tbaa !26
  store i32 0, ptr %4, align 4
  store i32 1, ptr %9, align 4
  call void @llvm.lifetime.end.p0(i64 8, ptr %10) #8
  br label %36

36:                                               ; preds = %26, %22
  call void @llvm.lifetime.end.p0(i64 8, ptr %8) #8
  %37 = load i32, ptr %4, align 4
  ret i32 %37
}

; Function Attrs: nounwind uwtable
define internal ptr @queuesmod_get_queue_defaults(ptr noundef %0, ptr noundef %1, ptr noundef %2) #0 {
  %4 = alloca ptr, align 8
  %5 = alloca ptr, align 8
  %6 = alloca ptr, align 8
  %7 = alloca ptr, align 8
  %8 = alloca %struct.idarg_int64_converter_data, align 8
  %9 = alloca i32, align 4
  %10 = alloca i64, align 8
  %11 = alloca ptr, align 8
  %12 = alloca i32, align 4
  %13 = alloca i32, align 4
  %14 = alloca i32, align 4
  %15 = alloca ptr, align 8
  store ptr %0, ptr %5, align 8, !tbaa !3
  store ptr %1, ptr %6, align 8, !tbaa !3
  store ptr %2, ptr %7, align 8, !tbaa !3
  call void @llvm.lifetime.start.p0(i64 16, ptr %8) #8
  call void @llvm.memset.p0.i64(ptr align 8 %8, i8 0, i64 16, i1 false)
  %16 = load ptr, ptr %6, align 8, !tbaa !3
  %17 = load ptr, ptr %7, align 8, !tbaa !3
  %18 = call i32 (ptr, ptr, ptr, ptr, ...) @PyArg_ParseTupleAndKeywords(ptr noundef %16, ptr noundef %17, ptr noundef @.str.44, ptr noundef @queuesmod_get_queue_defaults.kwlist, ptr noundef @qidarg_converter, ptr noundef %8)
  %19 = icmp ne i32 %18, 0
  br i1 %19, label %21, label %20

20:                                               ; preds = %3
  store ptr null, ptr %4, align 8
  store i32 1, ptr %9, align 4
  br label %48

21:                                               ; preds = %3
  call void @llvm.lifetime.start.p0(i64 8, ptr %10) #8
  %22 = getelementptr inbounds nuw %struct.idarg_int64_converter_data, ptr %8, i32 0, i32 1
  %23 = load i64, ptr %22, align 8, !tbaa !13
  store i64 %23, ptr %10, align 8, !tbaa !11
  call void @llvm.lifetime.start.p0(i64 8, ptr %11) #8
  store ptr null, ptr %11, align 8, !tbaa !26
  call void @llvm.lifetime.start.p0(i64 4, ptr %12) #8
  %24 = load i64, ptr %10, align 8, !tbaa !11
  %25 = call i32 @_queues_lookup(ptr noundef getelementptr inbounds nuw (%struct.globals, ptr @_globals, i32 0, i32 2), i64 noundef %24, ptr noundef %11)
  store i32 %25, ptr %12, align 4, !tbaa !9
  %26 = load i32, ptr %12, align 4, !tbaa !9
  %27 = load ptr, ptr %5, align 8, !tbaa !3
  %28 = load i64, ptr %10, align 8, !tbaa !11
  %29 = call i32 @handle_queue_error(i32 noundef %26, ptr noundef %27, i64 noundef %28)
  %30 = icmp ne i32 %29, 0
  br i1 %30, label %31, label %32

31:                                               ; preds = %21
  store ptr null, ptr %4, align 8
  store i32 1, ptr %9, align 4
  br label %47

32:                                               ; preds = %21
  call void @llvm.lifetime.start.p0(i64 4, ptr %13) #8
  %33 = load ptr, ptr %11, align 8, !tbaa !26
  %34 = getelementptr inbounds nuw %struct._queue, ptr %33, i32 0, i32 4
  %35 = getelementptr inbounds nuw %struct.anon.0, ptr %34, i32 0, i32 0
  %36 = load i32, ptr %35, align 8, !tbaa !28
  store i32 %36, ptr %13, align 4, !tbaa !9
  call void @llvm.lifetime.start.p0(i64 4, ptr %14) #8
  %37 = load ptr, ptr %11, align 8, !tbaa !26
  %38 = getelementptr inbounds nuw %struct._queue, ptr %37, i32 0, i32 4
  %39 = getelementptr inbounds nuw %struct.anon.0, ptr %38, i32 0, i32 1
  %40 = load i32, ptr %39, align 4, !tbaa !33
  store i32 %40, ptr %14, align 4, !tbaa !9
  %41 = load ptr, ptr %11, align 8, !tbaa !26
  %42 = load ptr, ptr getelementptr inbounds nuw (%struct.globals, ptr @_globals, i32 0, i32 2), align 8, !tbaa !34
  call void @_queue_unmark_waiter(ptr noundef %41, ptr noundef %42)
  call void @llvm.lifetime.start.p0(i64 8, ptr %15) #8
  %43 = load i32, ptr %13, align 4, !tbaa !9
  %44 = load i32, ptr %14, align 4, !tbaa !9
  %45 = call ptr (ptr, ...) @Py_BuildValue(ptr noundef @.str.45, i32 noundef %43, i32 noundef %44)
  store ptr %45, ptr %15, align 8, !tbaa !3
  %46 = load ptr, ptr %15, align 8, !tbaa !3
  store ptr %46, ptr %4, align 8
  store i32 1, ptr %9, align 4
  call void @llvm.lifetime.end.p0(i64 8, ptr %15) #8
  call void @llvm.lifetime.end.p0(i64 4, ptr %14) #8
  call void @llvm.lifetime.end.p0(i64 4, ptr %13) #8
  br label %47

47:                                               ; preds = %32, %31
  call void @llvm.lifetime.end.p0(i64 4, ptr %12) #8
  call void @llvm.lifetime.end.p0(i64 8, ptr %11) #8
  call void @llvm.lifetime.end.p0(i64 8, ptr %10) #8
  br label %48

48:                                               ; preds = %47, %20
  call void @llvm.lifetime.end.p0(i64 16, ptr %8) #8
  %49 = load ptr, ptr %4, align 8
  ret ptr %49
}