; Function Attrs: nounwind uwtable
define internal ptr @queuesmod_get_queue_defaults(ptr noundef %0, ptr noundef %1, ptr noundef %2) #0 {
  %4 = alloca %struct.idarg_int64_converter_data, align 8
  call void @llvm.lifetime.start.p0(i64 16, ptr nonnull %4) #6
  call void @llvm.memset.p0.i64(ptr noundef nonnull align 8 dereferenceable(16) %4, i8 0, i64 16, i1 false)
  %5 = call i32 (ptr, ptr, ptr, ptr, ...) @PyArg_ParseTupleAndKeywords(ptr noundef %1, ptr noundef %2, ptr noundef nonnull @.str.44, ptr noundef nonnull @queuesmod_get_queue_defaults.kwlist, ptr noundef nonnull @qidarg_converter, ptr noundef nonnull %4) #6
  %.not = icmp eq i32 %5, 0
  br i1 %.not, label %37, label %6

6:                                                ; preds = %3
  %7 = getelementptr inbounds nuw i8, ptr %4, i64 8
  %8 = load i64, ptr %7, align 8, !tbaa !43
  %9 = load ptr, ptr getelementptr inbounds nuw (i8, ptr @_globals, i64 8), align 8, !tbaa !20
  %10 = call i32 @PyThread_acquire_lock(ptr noundef %9, i32 noundef 1) #6
  %11 = load ptr, ptr getelementptr inbounds nuw (i8, ptr @_globals, i64 16), align 8, !tbaa !39
  %.not12.i.i = icmp eq ptr %11, null
  br i1 %.not12.i.i, label %_queues_lookup.exit, label %.lr.ph.i.i

.lr.ph.i.i:                                       ; preds = %6, %15
  %.014.i.i = phi ptr [ %16, %15 ], [ %11, %6 ]
  %12 = getelementptr inbounds nuw i8, ptr %.014.i.i, i64 8
  %13 = load i64, ptr %12, align 8, !tbaa !46
  %14 = icmp eq i64 %13, %8
  br i1 %14, label %_queuerefs_find.exit.i, label %15

15:                                               ; preds = %.lr.ph.i.i
  %16 = load ptr, ptr %.014.i.i, align 8, !tbaa !40
  %.not.i.i = icmp eq ptr %16, null
  br i1 %.not.i.i, label %_queues_lookup.exit, label %.lr.ph.i.i, !llvm.loop !62

_queuerefs_find.exit.i:                           ; preds = %.lr.ph.i.i
  %17 = getelementptr inbounds nuw i8, ptr %.014.i.i, i64 24
  %18 = load ptr, ptr %17, align 8, !tbaa !49
  %19 = load i64, ptr %18, align 8, !tbaa !63
  %20 = add i64 %19, 1
  store i64 %20, ptr %18, align 8, !tbaa !63
  br label %_queues_lookup.exit

_queues_lookup.exit:                              ; preds = %15, %6, %_queuerefs_find.exit.i
  %.010 = phi ptr [ %18, %_queuerefs_find.exit.i ], [ null, %6 ], [ null, %15 ]
  %.0.i = phi i32 [ 0, %_queuerefs_find.exit.i ], [ -14, %6 ], [ -14, %15 ]
  %21 = load ptr, ptr getelementptr inbounds nuw (i8, ptr @_globals, i64 8), align 8, !tbaa !20
  call void @PyThread_release_lock(ptr noundef %21) #6
  %22 = call fastcc i32 @handle_queue_error(i32 noundef %.0.i, ptr noundef %0, i64 noundef %8)
  %.not9 = icmp eq i32 %22, 0
  br i1 %.not9, label %23, label %37

23:                                               ; preds = %_queues_lookup.exit
  %24 = getelementptr inbounds nuw i8, ptr %.010, i64 56
  %25 = load i32, ptr %24, align 8, !tbaa !50
  %26 = getelementptr inbounds nuw i8, ptr %.010, i64 60
  %27 = load i32, ptr %26, align 4, !tbaa !52
  %28 = load ptr, ptr getelementptr inbounds nuw (i8, ptr @_globals, i64 8), align 8, !tbaa !75
  %.not.i = icmp eq ptr %28, null
  br i1 %.not.i, label %33, label %29

29:                                               ; preds = %23
  %30 = call i32 @PyThread_acquire_lock(ptr noundef nonnull %28, i32 noundef 1) #6
  %31 = load i64, ptr %.010, align 8, !tbaa !63
  %32 = add i64 %31, -1
  store i64 %32, ptr %.010, align 8, !tbaa !63
  call void @PyThread_release_lock(ptr noundef nonnull %28) #6
  br label %_queue_unmark_waiter.exit

33:                                               ; preds = %23
  %34 = load i64, ptr %.010, align 8, !tbaa !63
  %35 = add i64 %34, -1
  store i64 %35, ptr %.010, align 8, !tbaa !63
  br label %_queue_unmark_waiter.exit

_queue_unmark_waiter.exit:                        ; preds = %29, %33
  %36 = call ptr (ptr, ...) @Py_BuildValue(ptr noundef nonnull @.str.45, i32 noundef %25, i32 noundef %27) #6
  br label %37

37:                                               ; preds = %_queue_unmark_waiter.exit, %_queues_lookup.exit, %3
  %.0 = phi ptr [ null, %3 ], [ %36, %_queue_unmark_waiter.exit ], [ null, %_queues_lookup.exit ]
  call void @llvm.lifetime.end.p0(i64 16, ptr nonnull %4) #6
  ret ptr %.0
}